target datalayout = "e-m:e-p270:32:32-p271:32:32-p272:64:64-i64:64-i128:128-f80:128-n8:16:32:64-S128"
target triple = "x86_64-pc-linux-gnu"

%struct.ExprState = type { i32, i8, i8, i64, ptr, ptr, ptr, ptr, ptr, i32, i32, ptr, ptr, ptr, ptr, ptr, ptr, ptr }
%struct.ExprEvalStep = type { i64, ptr, ptr, %union.anon }
%union.anon = type { %struct.anon.23 }
%struct.anon.23 = type { ptr, ptr, i32, i32, ptr, ptr }
%struct.PlanState = type { i32, ptr, ptr, ptr, ptr, ptr, ptr, ptr, ptr, ptr, ptr, ptr, ptr, ptr, ptr, ptr, ptr, ptr, i8, ptr, ptr, ptr, ptr, ptr, i8, i8, i8, i8, i8, i8, i8, i8 }
%struct.ModifyTableState = type { %struct.PlanState, i32, i8, i8, i32, ptr, ptr, %struct.EPQState, i8, i32, i32, i32, ptr, ptr, ptr, ptr, ptr, i32, ptr, ptr, double, double, double, ptr, ptr, ptr }
%struct.EPQState = type { ptr, i32, ptr, ptr, ptr, ptr, ptr, ptr, ptr, ptr, ptr, ptr, ptr }
%struct.MergeActionState = type { i32, ptr, ptr, ptr }
%struct.MergeAction = type { i32, i32, i32, i32, ptr, ptr, ptr }

@.str.1 = private unnamed_addr constant [17 x i8] c"execExprInterp.c\00", align 1
@.str.29 = private unnamed_addr constant [28 x i8] c"no merge action in progress\00", align 1
@__func__.ExecEvalMergeSupportFunc = private unnamed_addr constant [25 x i8] c"ExecEvalMergeSupportFunc\00", align 1
@.str.30 = private unnamed_addr constant [7 x i8] c"INSERT\00", align 1
@.str.31 = private unnamed_addr constant [7 x i8] c"UPDATE\00", align 1
@.str.32 = private unnamed_addr constant [7 x i8] c"DELETE\00", align 1
@.str.33 = private unnamed_addr constant [36 x i8] c"unexpected merge action: DO NOTHING\00", align 1
@.str.34 = private unnamed_addr constant [29 x i8] c"unrecognized commandType: %d\00", align 1

; Function Attrs: inlinehint nounwind uwtable
define internal i64 @PointerGetDatum(ptr noundef %0) #2 {
  %2 = alloca ptr, align 8
  store ptr %0, ptr %2, align 8
  %3 = load ptr, ptr %2, align 8
  %4 = ptrtoint ptr %3 to i64
  ret i64 %4
}

; Function Attrs: nounwind uwtable
define dso_local void @ExecEvalMergeSupportFunc(ptr noundef %0, ptr noundef %1, ptr noundef %2) #0 {
  %4 = alloca ptr, align 8
  %5 = alloca ptr, align 8
  %6 = alloca ptr, align 8
  %7 = alloca ptr, align 8
  %8 = alloca ptr, align 8
  store ptr %0, ptr %4, align 8
  store ptr %1, ptr %5, align 8
  store ptr %2, ptr %6, align 8
  call void @llvm.lifetime.start.p0(i64 8, ptr %7) #11
  %9 = load ptr, ptr %4, align 8
  %10 = getelementptr inbounds nuw %struct.ExprState, ptr %9, i32 0, i32 11
  %11 = load ptr, ptr %10, align 8
  store ptr %11, ptr %7, align 8
  call void @llvm.lifetime.start.p0(i64 8, ptr %8) #11
  %12 = load ptr, ptr %7, align 8
  %13 = getelementptr inbounds nuw %struct.ModifyTableState, ptr %12, i32 0, i32 18
  %14 = load ptr, ptr %13, align 8
  store ptr %14, ptr %8, align 8
  %15 = load ptr, ptr %8, align 8
  %16 = icmp ne ptr %15, null
  br i1 %16, label %28, label %17

17:                                               ; preds = %3
  br label %18

18:                                               ; preds = %17
  br i1 true, label %19, label %21

19:                                               ; preds = %18
  %20 = call zeroext i1 @errstart_cold(i32 noundef 21, ptr noundef null) #12
  br i1 %20, label %23, label %25

21:                                               ; preds = %18
  %22 = call zeroext i1 @errstart(i32 noundef 21, ptr noundef null)
  br i1 %22, label %23, label %25

23:                                               ; preds = %21, %19
  %24 = call i32 (ptr, ...) @errmsg_internal(ptr noundef @.str.29)
  call void @errfinish(ptr noundef @.str.1, i32 noundef 5199, ptr noundef @__func__.ExecEvalMergeSupportFunc)
  br label %25

25:                                               ; preds = %23, %21, %19
  unreachable

26:                                               ; No predecessors!
  br label %27

27:                                               ; preds = %26
  br label %28

28:                                               ; preds = %27, %3
  %29 = load ptr, ptr %8, align 8
  %30 = getelementptr inbounds nuw %struct.MergeActionState, ptr %29, i32 0, i32 1
  %31 = load ptr, ptr %30, align 8
  %32 = getelementptr inbounds nuw %struct.MergeAction, ptr %31, i32 0, i32 2
  %33 = load i32, ptr %32, align 8
  switch i32 %33, label %72 [
    i32 3, label %34
    i32 2, label %43
    i32 4, label %52
    i32 7, label %61
  ]

34:                                               ; preds = %28
  %35 = call ptr @cstring_to_text_with_len(ptr noundef @.str.30, i32 noundef 6)
  %36 = call i64 @PointerGetDatum(ptr noundef %35)
  %37 = load ptr, ptr %5, align 8
  %38 = getelementptr inbounds nuw %struct.ExprEvalStep, ptr %37, i32 0, i32 1
  %39 = load ptr, ptr %38, align 8
  store i64 %36, ptr %39, align 8
  %40 = load ptr, ptr %5, align 8
  %41 = getelementptr inbounds nuw %struct.ExprEvalStep, ptr %40, i32 0, i32 2
  %42 = load ptr, ptr %41, align 8
  store i8 0, ptr %42, align 1
  br label %88

43:                                               ; preds = %28
  %44 = call ptr @cstring_to_text_with_len(ptr noundef @.str.31, i32 noundef 6)
  %45 = call i64 @PointerGetDatum(ptr noundef %44)
  %46 = load ptr, ptr %5, align 8
  %47 = getelementptr inbounds nuw %struct.ExprEvalStep, ptr %46, i32 0, i32 1
  %48 = load ptr, ptr %47, align 8
  store i64 %45, ptr %48, align 8
  %49 = load ptr, ptr %5, align 8
  %50 = getelementptr inbounds nuw %struct.ExprEvalStep, ptr %49, i32 0, i32 2
  %51 = load ptr, ptr %50, align 8
  store i8 0, ptr %51, align 1
  br label %88

52:                                               ; preds = %28
  %53 = call ptr @cstring_to_text_with_len(ptr noundef @.str.32, i32 noundef 6)
  %54 = call i64 @PointerGetDatum(ptr noundef %53)
  %55 = load ptr, ptr %5, align 8
  %56 = getelementptr inbounds nuw %struct.ExprEvalStep, ptr %55, i32 0, i32 1
  %57 = load ptr, ptr %56, align 8
  store i64 %54, ptr %57, align 8
  %58 = load ptr, ptr %5, align 8
  %59 = getelementptr inbounds nuw %struct.ExprEvalStep, ptr %58, i32 0, i32 2
  %60 = load ptr, ptr %59, align 8
  store i8 0, ptr %60, align 1
  br label %88

61:                                               ; preds = %28
  br label %62

62:                                               ; preds = %61
  br i1 true, label %63, label %65

63:                                               ; preds = %62
  %64 = call zeroext i1 @errstart_cold(i32 noundef 21, ptr noundef null) #12
  br i1 %64, label %67, label %69

65:                                               ; preds = %62
  %66 = call zeroext i1 @errstart(i32 noundef 21, ptr noundef null)
  br i1 %66, label %67, label %69

67:                                               ; preds = %65, %63
  %68 = call i32 (ptr, ...) @errmsg_internal(ptr noundef @.str.33)
  call void @errfinish(ptr noundef @.str.1, i32 noundef 5217, ptr noundef @__func__.ExecEvalMergeSupportFunc)
  br label %69

69:                                               ; preds = %67, %65, %63
  unreachable

70:                                               ; No predecessors!
  br label %71

71:                                               ; preds = %70
  br label %88

72:                                               ; preds = %28
  br label %73

73:                                               ; preds = %72
  br i1 true, label %74, label %76

74:                                               ; preds = %73
  %75 = call zeroext i1 @errstart_cold(i32 noundef 21, ptr noundef null) #12
  br i1 %75, label %78, label %85

76:                                               ; preds = %73
  %77 = call zeroext i1 @errstart(i32 noundef 21, ptr noundef null)
  br i1 %77, label %78, label %85

78:                                               ; preds = %76, %74
  %79 = load ptr, ptr %8, align 8
  %80 = getelementptr inbounds nuw %struct.MergeActionState, ptr %79, i32 0, i32 1
  %81 = load ptr, ptr %80, align 8
  %82 = getelementptr inbounds nuw %struct.MergeAction, ptr %81, i32 0, i32 2
  %83 = load i32, ptr %82, align 8
  %84 = call i32 (ptr, ...) @errmsg_internal(ptr noundef @.str.34, i32 noundef %83)
  call void @errfinish(ptr noundef @.str.1, i32 noundef 5221, ptr noundef @__func__.ExecEvalMergeSupportFunc)
  br label %85

85:                                               ; preds = %78, %76, %74
  unreachable

86:                                               ; No predecessors!
  br label %87

87:                                               ; preds = %86
  br label %88

88:                                               ; preds = %87, %71, %52, %43, %34
  call void @llvm.lifetime.end.p0(i64 8, ptr %8) #11
  call void @llvm.lifetime.end.p0(i64 8, ptr %7) #11
  ret void
}