; Function Attrs: nounwind uwtable
define dso_local void @ExecEvalMergeSupportFunc(ptr noundef readonly captures(none) %0, ptr noundef readonly captures(none) %1, ptr readnone captures(none) %2) local_unnamed_addr #0 {
  %4 = getelementptr inbounds nuw i8, ptr %0, i64 64
  %5 = load ptr, ptr %4, align 8
  %6 = getelementptr inbounds nuw i8, ptr %5, i64 400
  %7 = load ptr, ptr %6, align 8
  %.not = icmp eq ptr %7, null
  br i1 %.not, label %8, label %11

8:                                                ; preds = %3
  %9 = tail call zeroext i1 @errstart_cold(i32 noundef 21, ptr noundef null) #19
  tail call void @llvm.assume(i1 %9)
  %10 = tail call i32 (ptr, ...) @errmsg_internal(ptr noundef nonnull @.str.29) #18
  tail call void @errfinish(ptr noundef nonnull @.str.1, i32 noundef 5199, ptr noundef nonnull @__func__.ExecEvalMergeSupportFunc) #18
  unreachable

11:                                               ; preds = %3
  %12 = getelementptr inbounds nuw i8, ptr %7, i64 8
  %13 = load ptr, ptr %12, align 8
  %14 = getelementptr inbounds nuw i8, ptr %13, i64 8
  %15 = load i32, ptr %14, align 8
  switch i32 %15, label %21 [
    i32 3, label %27
    i32 2, label %16
    i32 4, label %17
    i32 7, label %18
  ]

16:                                               ; preds = %11
  br label %27

17:                                               ; preds = %11
  br label %27

18:                                               ; preds = %11
  %19 = tail call zeroext i1 @errstart_cold(i32 noundef 21, ptr noundef null) #19
  tail call void @llvm.assume(i1 %19)
  %20 = tail call i32 (ptr, ...) @errmsg_internal(ptr noundef nonnull @.str.33) #18
  tail call void @errfinish(ptr noundef nonnull @.str.1, i32 noundef 5217, ptr noundef nonnull @__func__.ExecEvalMergeSupportFunc) #18
  unreachable

21:                                               ; preds = %11
  %22 = tail call zeroext i1 @errstart_cold(i32 noundef 21, ptr noundef null) #19
  tail call void @llvm.assume(i1 %22)
  %23 = load ptr, ptr %12, align 8
  %24 = getelementptr inbounds nuw i8, ptr %23, i64 8
  %25 = load i32, ptr %24, align 8
  %26 = tail call i32 (ptr, ...) @errmsg_internal(ptr noundef nonnull @.str.34, i32 noundef %25) #18
  tail call void @errfinish(ptr noundef nonnull @.str.1, i32 noundef 5221, ptr noundef nonnull @__func__.ExecEvalMergeSupportFunc) #18
  unreachable

27:                                               ; preds = %11, %17, %16
  %.str.32.sink = phi ptr [ @.str.32, %17 ], [ @.str.31, %16 ], [ @.str.30, %11 ]
  %28 = tail call ptr @cstring_to_text_with_len(ptr noundef nonnull %.str.32.sink, i32 noundef 6) #18
  %29 = ptrtoint ptr %28 to i64
  %30 = getelementptr inbounds nuw i8, ptr %1, i64 8
  %31 = load ptr, ptr %30, align 8
  store i64 %29, ptr %31, align 8
  %32 = getelementptr inbounds nuw i8, ptr %1, i64 16
  %33 = load ptr, ptr %32, align 8
  store i8 0, ptr %33, align 1
  ret void
}